target datalayout = "e-m:e-p270:32:32-p271:32:32-p272:64:64-i64:64-i128:128-f80:128-n8:16:32:64-S128"
target triple = "x86_64-pc-linux-gnu"

@.str = private unnamed_addr constant [35 x i8] c"../openssl/crypto/pkcs12/p12_utl.c\00", align 1

; Function Attrs: nounwind uwtable
define ptr @OPENSSL_asc2uni(ptr noundef %0, i32 noundef %1, ptr noundef %2, ptr noundef %3) #0 {
  %5 = alloca ptr, align 8
  %6 = alloca ptr, align 8
  %7 = alloca i32, align 4
  %8 = alloca ptr, align 8
  %9 = alloca ptr, align 8
  %10 = alloca i32, align 4
  %11 = alloca i32, align 4
  %12 = alloca ptr, align 8
  %13 = alloca i32, align 4
  store ptr %0, ptr %6, align 8, !tbaa !3
  store i32 %1, ptr %7, align 4, !tbaa !8
  store ptr %2, ptr %8, align 8, !tbaa !10
  store ptr %3, ptr %9, align 8, !tbaa !12
  call void @llvm.lifetime.start.p0(i64 4, ptr %10) #4
  call void @llvm.lifetime.start.p0(i64 4, ptr %11) #4
  call void @llvm.lifetime.start.p0(i64 8, ptr %12) #4
  %14 = load i32, ptr %7, align 4, !tbaa !8
  %15 = icmp eq i32 %14, -1
  br i1 %15, label %16, label %20

16:                                               ; preds = %4
  %17 = load ptr, ptr %6, align 8, !tbaa !3
  %18 = call i64 @strlen(ptr noundef %17) #5
  %19 = trunc i64 %18 to i32
  store i32 %19, ptr %7, align 4, !tbaa !8
  br label %20

20:                                               ; preds = %16, %4
  %21 = load i32, ptr %7, align 4, !tbaa !8
  %22 = icmp slt i32 %21, 0
  br i1 %22, label %23, label %24

23:                                               ; preds = %20
  store ptr null, ptr %5, align 8
  store i32 1, ptr %13, align 4
  br label %82

24:                                               ; preds = %20
  %25 = load i32, ptr %7, align 4, !tbaa !8
  %26 = mul nsw i32 %25, 2
  %27 = add nsw i32 %26, 2
  store i32 %27, ptr %10, align 4, !tbaa !8
  %28 = load i32, ptr %10, align 4, !tbaa !8
  %29 = sext i32 %28 to i64
  %30 = call noalias ptr @CRYPTO_malloc(i64 noundef %29, ptr noundef @.str, i32 noundef 29)
  store ptr %30, ptr %12, align 8, !tbaa !3
  %31 = icmp eq ptr %30, null
  br i1 %31, label %32, label %33

32:                                               ; preds = %24
  store ptr null, ptr %5, align 8
  store i32 1, ptr %13, align 4
  br label %82

33:                                               ; preds = %24
  store i32 0, ptr %11, align 4, !tbaa !8
  br label %34

34:                                               ; preds = %55, %33
  %35 = load i32, ptr %11, align 4, !tbaa !8
  %36 = load i32, ptr %10, align 4, !tbaa !8
  %37 = sub nsw i32 %36, 2
  %38 = icmp slt i32 %35, %37
  br i1 %38, label %39, label %58

39:                                               ; preds = %34
  %40 = load ptr, ptr %12, align 8, !tbaa !3
  %41 = load i32, ptr %11, align 4, !tbaa !8
  %42 = sext i32 %41 to i64
  %43 = getelementptr inbounds i8, ptr %40, i64 %42
  store i8 0, ptr %43, align 1, !tbaa !14
  %44 = load ptr, ptr %6, align 8, !tbaa !3
  %45 = load i32, ptr %11, align 4, !tbaa !8
  %46 = ashr i32 %45, 1
  %47 = sext i32 %46 to i64
  %48 = getelementptr inbounds i8, ptr %44, i64 %47
  %49 = load i8, ptr %48, align 1, !tbaa !14
  %50 = load ptr, ptr %12, align 8, !tbaa !3
  %51 = load i32, ptr %11, align 4, !tbaa !8
  %52 = add nsw i32 %51, 1
  %53 = sext i32 %52 to i64
  %54 = getelementptr inbounds i8, ptr %50, i64 %53
  store i8 %49, ptr %54, align 1, !tbaa !14
  br label %55

55:                                               ; preds = %39
  %56 = load i32, ptr %11, align 4, !tbaa !8
  %57 = add nsw i32 %56, 2
  store i32 %57, ptr %11, align 4, !tbaa !8
  br label %34, !llvm.loop !15

58:                                               ; preds = %34
  %59 = load ptr, ptr %12, align 8, !tbaa !3
  %60 = load i32, ptr %10, align 4, !tbaa !8
  %61 = sub nsw i32 %60, 2
  %62 = sext i32 %61 to i64
  %63 = getelementptr inbounds i8, ptr %59, i64 %62
  store i8 0, ptr %63, align 1, !tbaa !14
  %64 = load ptr, ptr %12, align 8, !tbaa !3
  %65 = load i32, ptr %10, align 4, !tbaa !8
  %66 = sub nsw i32 %65, 1
  %67 = sext i32 %66 to i64
  %68 = getelementptr inbounds i8, ptr %64, i64 %67
  store i8 0, ptr %68, align 1, !tbaa !14
  %69 = load ptr, ptr %9, align 8, !tbaa !12
  %70 = icmp ne ptr %69, null
  br i1 %70, label %71, label %74

71:                                               ; preds = %58
  %72 = load i32, ptr %10, align 4, !tbaa !8
  %73 = load ptr, ptr %9, align 8, !tbaa !12
  store i32 %72, ptr %73, align 4, !tbaa !8
  br label %74

74:                                               ; preds = %71, %58
  %75 = load ptr, ptr %8, align 8, !tbaa !10
  %76 = icmp ne ptr %75, null
  br i1 %76, label %77, label %80

77:                                               ; preds = %74
  %78 = load ptr, ptr %12, align 8, !tbaa !3
  %79 = load ptr, ptr %8, align 8, !tbaa !10
  store ptr %78, ptr %79, align 8, !tbaa !3
  br label %80

80:                                               ; preds = %77, %74
  %81 = load ptr, ptr %12, align 8, !tbaa !3
  store ptr %81, ptr %5, align 8
  store i32 1, ptr %13, align 4
  br label %82

82:                                               ; preds = %80, %32, %23
  call void @llvm.lifetime.end.p0(i64 8, ptr %12) #4
  call void @llvm.lifetime.end.p0(i64 4, ptr %11) #4
  call void @llvm.lifetime.end.p0(i64 4, ptr %10) #4
  %83 = load ptr, ptr %5, align 8
  ret ptr %83
}