; Function Attrs: nounwind uwtable
define ptr @OPENSSL_asc2uni(ptr noundef readonly captures(none) %0, i32 noundef %1, ptr noundef writeonly captures(address_is_null) %2, ptr noundef writeonly captures(address_is_null) %3) local_unnamed_addr #0 {
  %5 = icmp eq i32 %1, -1
  br i1 %5, label %6, label %9

6:                                                ; preds = %4
  %7 = tail call i64 @strlen(ptr noundef nonnull dereferenceable(1) %0) #5
  %8 = trunc i64 %7 to i32
  br label %9

9:                                                ; preds = %6, %4
  %.026 = phi i32 [ %8, %6 ], [ %1, %4 ]
  %10 = icmp slt i32 %.026, 0
  br i1 %10, label %32, label %11

11:                                               ; preds = %9
  %12 = shl nuw nsw i32 %.026, 1
  %13 = add nuw nsw i32 %12, 2
  %14 = zext nneg i32 %13 to i64
  %15 = tail call noalias ptr @CRYPTO_malloc(i64 noundef %14, ptr noundef nonnull @.str, i32 noundef 29) #6
  %16 = icmp eq ptr %15, null
  br i1 %16, label %32, label %.preheader

.preheader:                                       ; preds = %11
  %.not34 = icmp eq i32 %.026, 0
  br i1 %.not34, label %._crit_edge, label %.lr.ph.preheader

.lr.ph.preheader:                                 ; preds = %.preheader
  %17 = zext nneg i32 %12 to i64
  br label %.lr.ph

.lr.ph:                                           ; preds = %.lr.ph.preheader, %.lr.ph
  %indvars.iv = phi i64 [ 0, %.lr.ph.preheader ], [ %indvars.iv.next, %.lr.ph ]
  %18 = getelementptr inbounds nuw i8, ptr %15, i64 %indvars.iv
  store i8 0, ptr %18, align 1, !tbaa !3
  %19 = lshr exact i64 %indvars.iv, 1
  %20 = getelementptr inbounds nuw i8, ptr %0, i64 %19
  %21 = load i8, ptr %20, align 1, !tbaa !3
  %22 = or disjoint i64 %indvars.iv, 1
  %23 = getelementptr inbounds nuw i8, ptr %15, i64 %22
  store i8 %21, ptr %23, align 1, !tbaa !3
  %indvars.iv.next = add nuw nsw i64 %indvars.iv, 2
  %24 = icmp samesign ult i64 %indvars.iv.next, %17
  br i1 %24, label %.lr.ph, label %._crit_edge, !llvm.loop !6

._crit_edge:                                      ; preds = %.lr.ph, %.preheader
  %.pre-phi = phi i64 [ 0, %.preheader ], [ %17, %.lr.ph ]
  %25 = getelementptr inbounds nuw i8, ptr %15, i64 %.pre-phi
  store i8 0, ptr %25, align 1, !tbaa !3
  %26 = or disjoint i32 %12, 1
  %27 = zext nneg i32 %26 to i64
  %28 = getelementptr inbounds nuw i8, ptr %15, i64 %27
  store i8 0, ptr %28, align 1, !tbaa !3
  %.not = icmp eq ptr %3, null
  br i1 %.not, label %30, label %29

29:                                               ; preds = %._crit_edge
  store i32 %13, ptr %3, align 4, !tbaa !8
  br label %30

30:                                               ; preds = %29, %._crit_edge
  %.not32 = icmp eq ptr %2, null
  br i1 %.not32, label %32, label %31

31:                                               ; preds = %30
  store ptr %15, ptr %2, align 8, !tbaa !10
  br label %32

32:                                               ; preds = %30, %31, %11, %9
  %.0 = phi ptr [ null, %9 ], [ null, %11 ], [ %15, %31 ], [ %15, %30 ]
  ret ptr %.0
}